target datalayout = "e-m:e-p270:32:32-p271:32:32-p272:64:64-i64:64-i128:128-f80:128-n8:16:32:64-S128"
target triple = "x86_64-unknown-linux-gnu"

; Function Attrs: nounwind sspstrong uwtable
define internal i64 @tpm_emulator_get_buffer_size(ptr noundef %tb) #0 {
entry:
  %retval = alloca i64, align 8
  %tb.addr = alloca ptr, align 8
  %actual_size = alloca i64, align 8
  store ptr %tb, ptr %tb.addr, align 8
  %0 = load ptr, ptr %tb.addr, align 8
  %call = call i32 @tpm_emulator_set_buffer_size(ptr noundef %0, i64 noundef 0, ptr noundef %actual_size)
  %cmp = icmp slt i32 %call, 0
  br i1 %cmp, label %if.then, label %if.end

if.then:                                          ; preds = %entry
  store i64 4096, ptr %retval, align 8
  br label %return

if.end:                                           ; preds = %entry
  %1 = load i64, ptr %actual_size, align 8
  store i64 %1, ptr %retval, align 8
  br label %return

return:                                           ; preds = %if.end, %if.then
  %2 = load i64, ptr %retval, align 8
  ret i64 %2
}