; Function Attrs: nounwind sspstrong uwtable
define internal i64 @tpm_emulator_get_buffer_size(ptr noundef %tb) #0 {
entry:
  %actual_size = alloca i64, align 8
  %call = call fastcc i32 @tpm_emulator_set_buffer_size(ptr noundef %tb, i64 noundef 0, ptr noundef nonnull %actual_size)
  %cmp = icmp slt i32 %call, 0
  %0 = load i64, ptr %actual_size, align 8
  %retval.0 = select i1 %cmp, i64 4096, i64 %0
  ret i64 %retval.0
}